; Function Attrs: nounwind uwtable
define range(i32 0, 2) i32 @pack_graph(i64 noundef %0, ptr noundef readonly captures(none) %1, ptr noundef %2, ptr noundef %3) local_unnamed_addr #0 {
  %5 = alloca i32, align 4
  %6 = alloca %struct.pack_info, align 8
  call void @llvm.lifetime.start.p0(i64 48, ptr nonnull %6) #19
  call void @llvm.lifetime.start.p0(i64 4, ptr nonnull %5) #19
  %7 = tail call ptr @agget(ptr noundef %2, ptr noundef nonnull @.str.14) #19
  %.not.i.i = icmp eq ptr %7, null
  br i1 %.not.i.i, label %getPack.exit.i, label %8

8:                                                ; preds = %4
  %9 = call i32 (ptr, ptr, ...) @__isoc99_sscanf(ptr noundef nonnull %7, ptr noundef nonnull @.str.1, ptr noundef nonnull %5) #19
  %10 = icmp eq i32 %9, 1
  %11 = load i32, ptr %5, align 4
  %12 = icmp sgt i32 %11, -1
  %or.cond.i.i = select i1 %10, i1 %12, i1 false
  %spec.select.i = select i1 %or.cond.i.i, i32 %11, i32 8
  br label %getPack.exit.i

getPack.exit.i:                                   ; preds = %8, %4
  %.0.i.i = phi i32 [ 8, %4 ], [ %spec.select.i, %8 ]
  call void @llvm.lifetime.end.p0(i64 4, ptr nonnull %5) #19
  %13 = getelementptr inbounds nuw i8, ptr %6, i64 8
  store i32 %.0.i.i, ptr %13, align 8, !tbaa !50
  %14 = load i8, ptr @Verbose, align 1, !tbaa !47
  %.not.i = icmp eq i8 %14, 0
  br i1 %.not.i, label %getPackInfo.exit, label %15

15:                                               ; preds = %getPack.exit.i
  %16 = load ptr, ptr @stderr, align 8, !tbaa !14
  %17 = call i32 (ptr, ptr, ...) @fprintf(ptr noundef %16, ptr noundef nonnull @.str.15, i32 noundef %.0.i.i) #20
  br label %getPackInfo.exit

getPackInfo.exit:                                 ; preds = %getPack.exit.i, %15
  %18 = getelementptr inbounds nuw i8, ptr %6, i64 12
  store i8 0, ptr %18, align 4, !tbaa !57
  %19 = getelementptr inbounds nuw i8, ptr %6, i64 24
  store ptr null, ptr %19, align 8, !tbaa !13
  %20 = call ptr @agget(ptr noundef %2, ptr noundef nonnull @.str.13) #19
  %21 = call i32 @parsePackModeInfo(ptr noundef %20, i32 noundef 3, ptr noundef nonnull %6)
  store i8 1, ptr %18, align 4, !tbaa !57
  store ptr %3, ptr %19, align 8, !tbaa !13
  %22 = call i32 @packSubgraphs(i64 noundef %0, ptr noundef %1, ptr noundef %2, ptr noundef nonnull %6)
  %23 = icmp eq i32 %22, 0
  br i1 %23, label %24, label %25

24:                                               ; preds = %getPackInfo.exit
  call void @dotneato_postprocess(ptr noundef %2) #19
  br label %25

25:                                               ; preds = %24, %getPackInfo.exit
  call void @llvm.lifetime.end.p0(i64 48, ptr nonnull %6) #19
  ret i32 %22
}